target datalayout = "e-m:e-p270:32:32-p271:32:32-p272:64:64-i64:64-i128:128-f80:128-n8:16:32:64-S128"
target triple = "x86_64-pc-linux-gnu"

%struct.AVFormatContext = type { ptr, ptr, ptr, ptr, ptr, i32, i32, ptr, i32, ptr, i32, ptr, ptr, i64, i64, i64, i32, i32, i32, i64, i64, ptr, i32, i32, ptr, i32, i32, i32, i32, ptr, i64, i32, i32, %struct.AVIOInterruptCB, i32, i32, i32, i32, i64, i32, i32, i32, i32, i32, i32, i32, i32, i32, i32, i32, i32, i64, i32, i32, i32, i32, i32, ptr, ptr, ptr, ptr, i32, ptr, ptr, ptr, ptr, i32, ptr, ptr, i64, ptr, ptr, ptr, i64 }
%struct.AVIOInterruptCB = type { ptr, ptr }
%struct.AVStream = type { ptr, i32, i32, ptr, ptr, %struct.AVRational, i64, i64, i64, i32, i32, %struct.AVRational, ptr, %struct.AVRational, %struct.AVPacket, i32, %struct.AVRational, i32 }
%struct.AVPacket = type { ptr, i64, i64, ptr, i32, i32, i32, ptr, i32, i64, i64, ptr, ptr, %struct.AVRational }
%struct.AVRational = type { i32, i32 }
%struct.OGGStreamContext = type { i32, [3 x ptr], [3 x i32], i32, i64, i32, i32, i32, i32, %struct.OGGPage, i32, i64 }
%struct.OGGPage = type { i64, i64, i32, i8, i8, [255 x i8], [65025 x i8], i16 }
%struct.OGGContext = type { ptr, ptr, i32, i64, i32 }
%struct.AVCodecParameters = type { i32, i32, i32, ptr, i32, ptr, i32, i32, i64, i32, i32, i32, i32, i32, i32, %struct.AVRational, %struct.AVRational, i32, i32, i32, i32, i32, i32, i32, %struct.AVChannelLayout, i32, i32, i32, i32, i32, i32 }
%struct.AVChannelLayout = type { i32, i32, %union.anon.0, ptr }
%union.anon.0 = type { i64 }
%struct.OGGPageList = type { %struct.OGGPage, ptr }

; Function Attrs: nounwind uwtable
define internal void @ogg_free(ptr noundef %0) #0 {
  %2 = alloca ptr, align 8
  %3 = alloca ptr, align 8
  %4 = alloca ptr, align 8
  %5 = alloca i32, align 4
  %6 = alloca ptr, align 8
  %7 = alloca ptr, align 8
  %8 = alloca i32, align 4
  %9 = alloca ptr, align 8
  store ptr %0, ptr %2, align 8, !tbaa !4
  call void @llvm.lifetime.start.p0(i64 8, ptr %3) #9
  %10 = load ptr, ptr %2, align 8, !tbaa !4
  %11 = getelementptr inbounds nuw %struct.AVFormatContext, ptr %10, i32 0, i32 3
  %12 = load ptr, ptr %11, align 8, !tbaa !56
  store ptr %12, ptr %3, align 8, !tbaa !57
  call void @llvm.lifetime.start.p0(i64 8, ptr %4) #9
  %13 = load ptr, ptr %3, align 8, !tbaa !57
  %14 = getelementptr inbounds nuw %struct.OGGContext, ptr %13, i32 0, i32 1
  %15 = load ptr, ptr %14, align 8, !tbaa !85
  store ptr %15, ptr %4, align 8, !tbaa !86
  call void @llvm.lifetime.start.p0(i64 4, ptr %5) #9
  store i32 0, ptr %5, align 4, !tbaa !11
  br label %16

16:                                               ; preds = %75, %1
  %17 = load i32, ptr %5, align 4, !tbaa !11
  %18 = load ptr, ptr %2, align 8, !tbaa !4
  %19 = getelementptr inbounds nuw %struct.AVFormatContext, ptr %18, i32 0, i32 6
  %20 = load i32, ptr %19, align 4, !tbaa !13
  %21 = icmp ult i32 %17, %20
  br i1 %21, label %22, label %78

22:                                               ; preds = %16
  call void @llvm.lifetime.start.p0(i64 8, ptr %6) #9
  %23 = load ptr, ptr %2, align 8, !tbaa !4
  %24 = getelementptr inbounds nuw %struct.AVFormatContext, ptr %23, i32 0, i32 7
  %25 = load ptr, ptr %24, align 8, !tbaa !29
  %26 = load i32, ptr %5, align 4, !tbaa !11
  %27 = sext i32 %26 to i64
  %28 = getelementptr inbounds ptr, ptr %25, i64 %27
  %29 = load ptr, ptr %28, align 8, !tbaa !30
  store ptr %29, ptr %6, align 8, !tbaa !30
  call void @llvm.lifetime.start.p0(i64 8, ptr %7) #9
  %30 = load ptr, ptr %6, align 8, !tbaa !30
  %31 = getelementptr inbounds nuw %struct.AVStream, ptr %30, i32 0, i32 4
  %32 = load ptr, ptr %31, align 8, !tbaa !32
  store ptr %32, ptr %7, align 8, !tbaa !9
  %33 = load ptr, ptr %7, align 8, !tbaa !9
  %34 = icmp ne ptr %33, null
  br i1 %34, label %36, label %35

35:                                               ; preds = %22
  store i32 4, ptr %8, align 4
  br label %72

36:                                               ; preds = %22
  %37 = load ptr, ptr %6, align 8, !tbaa !30
  %38 = getelementptr inbounds nuw %struct.AVStream, ptr %37, i32 0, i32 3
  %39 = load ptr, ptr %38, align 8, !tbaa !63
  %40 = getelementptr inbounds nuw %struct.AVCodecParameters, ptr %39, i32 0, i32 1
  %41 = load i32, ptr %40, align 4, !tbaa !67
  %42 = icmp eq i32 %41, 86028
  br i1 %42, label %64, label %43

43:                                               ; preds = %36
  %44 = load ptr, ptr %6, align 8, !tbaa !30
  %45 = getelementptr inbounds nuw %struct.AVStream, ptr %44, i32 0, i32 3
  %46 = load ptr, ptr %45, align 8, !tbaa !63
  %47 = getelementptr inbounds nuw %struct.AVCodecParameters, ptr %46, i32 0, i32 1
  %48 = load i32, ptr %47, align 4, !tbaa !67
  %49 = icmp eq i32 %48, 86051
  br i1 %49, label %64, label %50

50:                                               ; preds = %43
  %51 = load ptr, ptr %6, align 8, !tbaa !30
  %52 = getelementptr inbounds nuw %struct.AVStream, ptr %51, i32 0, i32 3
  %53 = load ptr, ptr %52, align 8, !tbaa !63
  %54 = getelementptr inbounds nuw %struct.AVCodecParameters, ptr %53, i32 0, i32 1
  %55 = load i32, ptr %54, align 4, !tbaa !67
  %56 = icmp eq i32 %55, 86076
  br i1 %56, label %64, label %57

57:                                               ; preds = %50
  %58 = load ptr, ptr %6, align 8, !tbaa !30
  %59 = getelementptr inbounds nuw %struct.AVStream, ptr %58, i32 0, i32 3
  %60 = load ptr, ptr %59, align 8, !tbaa !63
  %61 = getelementptr inbounds nuw %struct.AVCodecParameters, ptr %60, i32 0, i32 1
  %62 = load i32, ptr %61, align 4, !tbaa !67
  %63 = icmp eq i32 %62, 139
  br i1 %63, label %64, label %68

64:                                               ; preds = %57, %50, %43, %36
  %65 = load ptr, ptr %7, align 8, !tbaa !9
  %66 = getelementptr inbounds nuw %struct.OGGStreamContext, ptr %65, i32 0, i32 1
  %67 = getelementptr inbounds [3 x ptr], ptr %66, i64 0, i64 0
  call void @av_freep(ptr noundef %67)
  br label %68

68:                                               ; preds = %64, %57
  %69 = load ptr, ptr %7, align 8, !tbaa !9
  %70 = getelementptr inbounds nuw %struct.OGGStreamContext, ptr %69, i32 0, i32 1
  %71 = getelementptr inbounds [3 x ptr], ptr %70, i64 0, i64 1
  call void @av_freep(ptr noundef %71)
  store i32 0, ptr %8, align 4
  br label %72

72:                                               ; preds = %68, %35
  call void @llvm.lifetime.end.p0(i64 8, ptr %7) #9
  call void @llvm.lifetime.end.p0(i64 8, ptr %6) #9
  %73 = load i32, ptr %8, align 4
  switch i32 %73, label %91 [
    i32 0, label %74
    i32 4, label %75
  ]

74:                                               ; preds = %72
  br label %75

75:                                               ; preds = %74, %72
  %76 = load i32, ptr %5, align 4, !tbaa !11
  %77 = add nsw i32 %76, 1
  store i32 %77, ptr %5, align 4, !tbaa !11
  br label %16, !llvm.loop !87

78:                                               ; preds = %16
  br label %79

79:                                               ; preds = %82, %78
  %80 = load ptr, ptr %4, align 8, !tbaa !86
  %81 = icmp ne ptr %80, null
  br i1 %81, label %82, label %88

82:                                               ; preds = %79
  call void @llvm.lifetime.start.p0(i64 8, ptr %9) #9
  %83 = load ptr, ptr %4, align 8, !tbaa !86
  %84 = getelementptr inbounds nuw %struct.OGGPageList, ptr %83, i32 0, i32 1
  %85 = load ptr, ptr %84, align 8, !tbaa !88
  store ptr %85, ptr %9, align 8, !tbaa !86
  %86 = load ptr, ptr %4, align 8, !tbaa !86
  call void @av_free(ptr noundef %86)
  %87 = load ptr, ptr %9, align 8, !tbaa !86
  store ptr %87, ptr %4, align 8, !tbaa !86
  call void @llvm.lifetime.end.p0(i64 8, ptr %9) #9
  br label %79, !llvm.loop !90

88:                                               ; preds = %79
  %89 = load ptr, ptr %3, align 8, !tbaa !57
  %90 = getelementptr inbounds nuw %struct.OGGContext, ptr %89, i32 0, i32 1
  store ptr null, ptr %90, align 8, !tbaa !85
  call void @llvm.lifetime.end.p0(i64 4, ptr %5) #9
  call void @llvm.lifetime.end.p0(i64 8, ptr %4) #9
  call void @llvm.lifetime.end.p0(i64 8, ptr %3) #9
  ret void

91:                                               ; preds = %72
  unreachable
}