; Function Attrs: nounwind uwtable
define internal void @ogg_free(ptr noundef readonly captures(none) %0) #0 {
  %2 = getelementptr inbounds nuw i8, ptr %0, i64 24
  %3 = load ptr, ptr %2, align 8, !tbaa !51
  %4 = getelementptr inbounds nuw i8, ptr %3, i64 8
  %5 = load ptr, ptr %4, align 8, !tbaa !109
  %6 = getelementptr inbounds nuw i8, ptr %0, i64 44
  %7 = load i32, ptr %6, align 4, !tbaa !4
  %.not27 = icmp eq i32 %7, 0
  br i1 %.not27, label %.preheader, label %.lr.ph

.lr.ph:                                           ; preds = %1
  %8 = getelementptr inbounds nuw i8, ptr %0, i64 48
  br label %9

.preheader:                                       ; preds = %25, %1
  %.not24 = icmp eq ptr %5, null
  br i1 %.not24, label %._crit_edge, label %.lr.ph26

9:                                                ; preds = %.lr.ph, %25
  %10 = phi i32 [ %7, %.lr.ph ], [ %26, %25 ]
  %indvars.iv = phi i64 [ 0, %.lr.ph ], [ %indvars.iv.next, %25 ]
  %11 = load ptr, ptr %8, align 8, !tbaa !24
  %12 = getelementptr inbounds nuw ptr, ptr %11, i64 %indvars.iv
  %13 = load ptr, ptr %12, align 8, !tbaa !25
  %14 = getelementptr inbounds nuw i8, ptr %13, i64 24
  %15 = load ptr, ptr %14, align 8, !tbaa !27
  %.not22 = icmp eq ptr %15, null
  br i1 %.not22, label %25, label %16

16:                                               ; preds = %9
  %17 = getelementptr inbounds nuw i8, ptr %13, i64 16
  %18 = load ptr, ptr %17, align 8, !tbaa !36
  %19 = getelementptr inbounds nuw i8, ptr %18, i64 4
  %20 = load i32, ptr %19, align 4, !tbaa !37
  switch i32 %20, label %23 [
    i32 86028, label %21
    i32 86051, label %21
    i32 86076, label %21
    i32 139, label %21
  ]

21:                                               ; preds = %16, %16, %16, %16
  %22 = getelementptr inbounds nuw i8, ptr %15, i64 8
  tail call void @av_freep(ptr noundef nonnull %22) #9
  br label %23

23:                                               ; preds = %16, %21
  %24 = getelementptr inbounds nuw i8, ptr %15, i64 16
  tail call void @av_freep(ptr noundef nonnull %24) #9
  %.pre = load i32, ptr %6, align 4, !tbaa !4
  br label %25

25:                                               ; preds = %9, %23
  %26 = phi i32 [ %10, %9 ], [ %.pre, %23 ]
  %indvars.iv.next = add nuw nsw i64 %indvars.iv, 1
  %27 = zext i32 %26 to i64
  %28 = icmp samesign ult i64 %indvars.iv.next, %27
  br i1 %28, label %9, label %.preheader, !llvm.loop !110

.lr.ph26:                                         ; preds = %.preheader, %.lr.ph26
  %.025 = phi ptr [ %30, %.lr.ph26 ], [ %5, %.preheader ]
  %29 = getelementptr inbounds nuw i8, ptr %.025, i64 65304
  %30 = load ptr, ptr %29, align 8, !tbaa !66
  tail call void @av_free(ptr noundef nonnull %.025) #9
  %.not = icmp eq ptr %30, null
  br i1 %.not, label %._crit_edge, label %.lr.ph26, !llvm.loop !111

._crit_edge:                                      ; preds = %.lr.ph26, %.preheader
  store ptr null, ptr %4, align 8, !tbaa !109
  ret void
}